; Function Attrs: nounwind uwtable
define i32 @Gia_IterTryImprove(ptr noundef %0, i32 noundef %1, i32 noundef %2) local_unnamed_addr #0 {
  %4 = alloca i32, align 4
  %5 = getelementptr inbounds nuw i8, ptr %0, i64 448
  %6 = load ptr, ptr %5, align 8, !tbaa !3
  %7 = tail call ptr @Gia_ManDupAbsGates(ptr noundef %0, ptr noundef %6) #11
  %8 = tail call ptr @Gia_ManToAigSimple(ptr noundef %7) #11
  %.not = icmp eq i32 %2, 0
  %9 = add nsw i32 %2, 1
  %10 = select i1 %.not, i32 10000000, i32 %9
  call void @llvm.lifetime.start.p0(i64 4, ptr nonnull %4) #11
  %11 = call i32 @Saig_BmcPerform(ptr noundef %8, i32 noundef 0, i32 noundef %10, i32 noundef 2000, i32 noundef %1, i32 noundef 0, i32 noundef 0, i32 noundef 0, i32 noundef 0, ptr noundef nonnull %4, i32 noundef 1, i32 noundef 0) #11
  call void @Aig_ManStop(ptr noundef %8) #11
  call void @Gia_ManStop(ptr noundef %7) #11
  %12 = load i32, ptr %4, align 4, !tbaa !28
  call void @llvm.lifetime.end.p0(i64 4, ptr nonnull %4) #11
  ret i32 %12
}